target datalayout = "e-m:e-p270:32:32-p271:32:32-p272:64:64-i64:64-i128:128-f80:128-n8:16:32:64-S128"
target triple = "x86_64-pc-linux-gnu"

%struct._dom_lexbor_libxml2_bridge_application_data = type { ptr, ptr, ptr, i64, i64, %struct._dom_line_column_cache, i8 }
%struct._dom_line_column_cache = type { i64, i64, i64 }
%struct.lxb_html_tokenizer_error_t = type { ptr, i32 }

@.str.20 = private unnamed_addr constant [50 x i8] c"tokenizer error %s in %s, line: %zu, column: %zu\0A\00", align 1
@.str.21 = private unnamed_addr constant [32 x i8] c"abrupt-closing-of-empty-comment\00", align 1
@.str.22 = private unnamed_addr constant [33 x i8] c"abrupt-doctype-public-identifier\00", align 1
@.str.23 = private unnamed_addr constant [33 x i8] c"abrupt-doctype-system-identifier\00", align 1
@.str.24 = private unnamed_addr constant [49 x i8] c"absence-of-digits-in-numeric-character-reference\00", align 1
@.str.25 = private unnamed_addr constant [22 x i8] c"cdata-in-html-content\00", align 1
@.str.26 = private unnamed_addr constant [42 x i8] c"character-reference-outside-unicode-range\00", align 1
@.str.27 = private unnamed_addr constant [34 x i8] c"control-character-in-input-stream\00", align 1
@.str.28 = private unnamed_addr constant [28 x i8] c"control-character-reference\00", align 1
@.str.29 = private unnamed_addr constant [24 x i8] c"end-tag-with-attributes\00", align 1
@.str.30 = private unnamed_addr constant [20 x i8] c"duplicate-attribute\00", align 1
@.str.31 = private unnamed_addr constant [30 x i8] c"end-tag-with-trailing-solidus\00", align 1
@.str.32 = private unnamed_addr constant [20 x i8] c"eof-before-tag-name\00", align 1
@.str.33 = private unnamed_addr constant [13 x i8] c"eof-in-cdata\00", align 1
@.str.34 = private unnamed_addr constant [15 x i8] c"eof-in-comment\00", align 1
@.str.35 = private unnamed_addr constant [15 x i8] c"eof-in-doctype\00", align 1
@.str.36 = private unnamed_addr constant [37 x i8] c"eof-in-script-html-comment-like-text\00", align 1
@.str.37 = private unnamed_addr constant [11 x i8] c"eof-in-tag\00", align 1
@.str.38 = private unnamed_addr constant [27 x i8] c"incorrectly-closed-comment\00", align 1
@.str.39 = private unnamed_addr constant [27 x i8] c"incorrectly-opened-comment\00", align 1
@.str.40 = private unnamed_addr constant [46 x i8] c"invalid-character-sequence-after-doctype-name\00", align 1
@.str.41 = private unnamed_addr constant [36 x i8] c"invalid-first-character-of-tag-name\00", align 1
@.str.42 = private unnamed_addr constant [24 x i8] c"missing-attribute-value\00", align 1
@.str.43 = private unnamed_addr constant [21 x i8] c"missing-doctype-name\00", align 1
@.str.44 = private unnamed_addr constant [34 x i8] c"missing-doctype-public-identifier\00", align 1
@.str.45 = private unnamed_addr constant [34 x i8] c"missing-doctype-system-identifier\00", align 1
@.str.46 = private unnamed_addr constant [21 x i8] c"missing-end-tag-name\00", align 1
@.str.47 = private unnamed_addr constant [47 x i8] c"missing-quote-before-doctype-public-identifier\00", align 1
@.str.48 = private unnamed_addr constant [47 x i8] c"missing-quote-before-doctype-system-identifier\00", align 1
@.str.49 = private unnamed_addr constant [44 x i8] c"missing-semicolon-after-character-reference\00", align 1
@.str.50 = private unnamed_addr constant [48 x i8] c"missing-whitespace-after-doctype-public-keyword\00", align 1
@.str.51 = private unnamed_addr constant [48 x i8] c"missing-whitespace-after-doctype-system-keyword\00", align 1
@.str.52 = private unnamed_addr constant [39 x i8] c"missing-whitespace-before-doctype-name\00", align 1
@.str.53 = private unnamed_addr constant [38 x i8] c"missing-whitespace-between-attributes\00", align 1
@.str.54 = private unnamed_addr constant [65 x i8] c"missing-whitespace-between-doctype-public-and-system-identifiers\00", align 1
@.str.55 = private unnamed_addr constant [15 x i8] c"nested-comment\00", align 1
@.str.56 = private unnamed_addr constant [33 x i8] c"noncharacter-character-reference\00", align 1
@.str.57 = private unnamed_addr constant [29 x i8] c"noncharacter-in-input-stream\00", align 1
@.str.58 = private unnamed_addr constant [54 x i8] c"non-void-html-element-start-tag-with-trailing-solidus\00", align 1
@.str.59 = private unnamed_addr constant [25 x i8] c"null-character-reference\00", align 1
@.str.60 = private unnamed_addr constant [30 x i8] c"surrogate-character-reference\00", align 1
@.str.61 = private unnamed_addr constant [26 x i8] c"surrogate-in-input-stream\00", align 1
@.str.62 = private unnamed_addr constant [53 x i8] c"unexpected-character-after-doctype-system-identifier\00", align 1
@.str.63 = private unnamed_addr constant [39 x i8] c"unexpected-character-in-attribute-name\00", align 1
@.str.64 = private unnamed_addr constant [49 x i8] c"unexpected-character-in-unquoted-attribute-value\00", align 1
@.str.65 = private unnamed_addr constant [45 x i8] c"unexpected-equals-sign-before-attribute-name\00", align 1
@.str.66 = private unnamed_addr constant [26 x i8] c"unexpected-null-character\00", align 1
@.str.67 = private unnamed_addr constant [45 x i8] c"unexpected-question-mark-instead-of-tag-name\00", align 1
@.str.68 = private unnamed_addr constant [26 x i8] c"unexpected-solidus-in-tag\00", align 1
@.str.69 = private unnamed_addr constant [34 x i8] c"unknown-named-character-reference\00", align 1
@.str.70 = private unnamed_addr constant [14 x i8] c"unknown error\00", align 1

; Function Attrs: nounwind uwtable
define internal ptr @dom_lexbor_tokenizer_error_code_to_string(i32 noundef %0) #0 {
  %2 = alloca ptr, align 8
  %3 = alloca i32, align 4
  store i32 %0, ptr %3, align 4
  %4 = load i32, ptr %3, align 4
  switch i32 %4, label %54 [
    i32 0, label %5
    i32 1, label %6
    i32 2, label %7
    i32 3, label %8
    i32 4, label %9
    i32 5, label %10
    i32 6, label %11
    i32 7, label %12
    i32 8, label %13
    i32 9, label %14
    i32 10, label %15
    i32 11, label %16
    i32 12, label %17
    i32 13, label %18
    i32 14, label %19
    i32 15, label %20
    i32 16, label %21
    i32 17, label %22
    i32 18, label %23
    i32 19, label %24
    i32 20, label %25
    i32 21, label %26
    i32 22, label %27
    i32 23, label %28
    i32 24, label %29
    i32 25, label %30
    i32 26, label %31
    i32 27, label %32
    i32 28, label %33
    i32 29, label %34
    i32 30, label %35
    i32 31, label %36
    i32 32, label %37
    i32 33, label %38
    i32 34, label %39
    i32 35, label %40
    i32 36, label %41
    i32 37, label %42
    i32 38, label %43
    i32 39, label %44
    i32 40, label %45
    i32 41, label %46
    i32 42, label %47
    i32 43, label %48
    i32 44, label %49
    i32 45, label %50
    i32 46, label %51
    i32 47, label %52
    i32 48, label %53
  ]

5:                                                ; preds = %1
  store ptr @.str.21, ptr %2, align 8
  br label %55

6:                                                ; preds = %1
  store ptr @.str.22, ptr %2, align 8
  br label %55

7:                                                ; preds = %1
  store ptr @.str.23, ptr %2, align 8
  br label %55

8:                                                ; preds = %1
  store ptr @.str.24, ptr %2, align 8
  br label %55

9:                                                ; preds = %1
  store ptr @.str.25, ptr %2, align 8
  br label %55

10:                                               ; preds = %1
  store ptr @.str.26, ptr %2, align 8
  br label %55

11:                                               ; preds = %1
  store ptr @.str.27, ptr %2, align 8
  br label %55

12:                                               ; preds = %1
  store ptr @.str.28, ptr %2, align 8
  br label %55

13:                                               ; preds = %1
  store ptr @.str.29, ptr %2, align 8
  br label %55

14:                                               ; preds = %1
  store ptr @.str.30, ptr %2, align 8
  br label %55

15:                                               ; preds = %1
  store ptr @.str.31, ptr %2, align 8
  br label %55

16:                                               ; preds = %1
  store ptr @.str.32, ptr %2, align 8
  br label %55

17:                                               ; preds = %1
  store ptr @.str.33, ptr %2, align 8
  br label %55

18:                                               ; preds = %1
  store ptr @.str.34, ptr %2, align 8
  br label %55

19:                                               ; preds = %1
  store ptr @.str.35, ptr %2, align 8
  br label %55

20:                                               ; preds = %1
  store ptr @.str.36, ptr %2, align 8
  br label %55

21:                                               ; preds = %1
  store ptr @.str.37, ptr %2, align 8
  br label %55

22:                                               ; preds = %1
  store ptr @.str.38, ptr %2, align 8
  br label %55

23:                                               ; preds = %1
  store ptr @.str.39, ptr %2, align 8
  br label %55

24:                                               ; preds = %1
  store ptr @.str.40, ptr %2, align 8
  br label %55

25:                                               ; preds = %1
  store ptr @.str.41, ptr %2, align 8
  br label %55

26:                                               ; preds = %1
  store ptr @.str.42, ptr %2, align 8
  br label %55

27:                                               ; preds = %1
  store ptr @.str.43, ptr %2, align 8
  br label %55

28:                                               ; preds = %1
  store ptr @.str.44, ptr %2, align 8
  br label %55

29:                                               ; preds = %1
  store ptr @.str.45, ptr %2, align 8
  br label %55

30:                                               ; preds = %1
  store ptr @.str.46, ptr %2, align 8
  br label %55

31:                                               ; preds = %1
  store ptr @.str.47, ptr %2, align 8
  br label %55

32:                                               ; preds = %1
  store ptr @.str.48, ptr %2, align 8
  br label %55

33:                                               ; preds = %1
  store ptr @.str.49, ptr %2, align 8
  br label %55

34:                                               ; preds = %1
  store ptr @.str.50, ptr %2, align 8
  br label %55

35:                                               ; preds = %1
  store ptr @.str.51, ptr %2, align 8
  br label %55

36:                                               ; preds = %1
  store ptr @.str.52, ptr %2, align 8
  br label %55

37:                                               ; preds = %1
  store ptr @.str.53, ptr %2, align 8
  br label %55

38:                                               ; preds = %1
  store ptr @.str.54, ptr %2, align 8
  br label %55

39:                                               ; preds = %1
  store ptr @.str.55, ptr %2, align 8
  br label %55

40:                                               ; preds = %1
  store ptr @.str.56, ptr %2, align 8
  br label %55

41:                                               ; preds = %1
  store ptr @.str.57, ptr %2, align 8
  br label %55

42:                                               ; preds = %1
  store ptr @.str.58, ptr %2, align 8
  br label %55

43:                                               ; preds = %1
  store ptr @.str.59, ptr %2, align 8
  br label %55

44:                                               ; preds = %1
  store ptr @.str.60, ptr %2, align 8
  br label %55

45:                                               ; preds = %1
  store ptr @.str.61, ptr %2, align 8
  br label %55

46:                                               ; preds = %1
  store ptr @.str.62, ptr %2, align 8
  br label %55

47:                                               ; preds = %1
  store ptr @.str.63, ptr %2, align 8
  br label %55

48:                                               ; preds = %1
  store ptr @.str.64, ptr %2, align 8
  br label %55

49:                                               ; preds = %1
  store ptr @.str.65, ptr %2, align 8
  br label %55

50:                                               ; preds = %1
  store ptr @.str.66, ptr %2, align 8
  br label %55

51:                                               ; preds = %1
  store ptr @.str.67, ptr %2, align 8
  br label %55

52:                                               ; preds = %1
  store ptr @.str.68, ptr %2, align 8
  br label %55

53:                                               ; preds = %1
  store ptr @.str.69, ptr %2, align 8
  br label %55

54:                                               ; preds = %1
  store ptr @.str.70, ptr %2, align 8
  br label %55

55:                                               ; preds = %54, %53, %52, %51, %50, %49, %48, %47, %46, %45, %44, %43, %42, %41, %40, %39, %38, %37, %36, %35, %34, %33, %32, %31, %30, %29, %28, %27, %26, %25, %24, %23, %22, %21, %20, %19, %18, %17, %16, %15, %14, %13, %12, %11, %10, %9, %8, %7, %6, %5
  %56 = load ptr, ptr %2, align 8
  ret ptr %56
}

; Function Attrs: nounwind uwtable
define internal void @dom_find_line_and_column_using_cache(ptr noundef %0, ptr noundef %1, i64 noundef %2) #0 {
  %4 = alloca ptr, align 8
  %5 = alloca ptr, align 8
  %6 = alloca i64, align 8
  %7 = alloca i8, align 1
  store ptr %0, ptr %4, align 8
  store ptr %1, ptr %5, align 8
  store i64 %2, ptr %6, align 8
  %8 = load ptr, ptr %4, align 8
  %9 = getelementptr inbounds %struct._dom_lexbor_libxml2_bridge_application_data, ptr %8, i32 0, i32 4
  %10 = load i64, ptr %9, align 8
  %11 = load i64, ptr %6, align 8
  %12 = sub i64 %11, %10
  store i64 %12, ptr %6, align 8
  %13 = load i64, ptr %6, align 8
  %14 = load ptr, ptr %4, align 8
  %15 = getelementptr inbounds %struct._dom_lexbor_libxml2_bridge_application_data, ptr %14, i32 0, i32 3
  %16 = load i64, ptr %15, align 8
  %17 = icmp ugt i64 %13, %16
  br i1 %17, label %18, label %22

18:                                               ; preds = %3
  %19 = load ptr, ptr %4, align 8
  %20 = getelementptr inbounds %struct._dom_lexbor_libxml2_bridge_application_data, ptr %19, i32 0, i32 3
  %21 = load i64, ptr %20, align 8
  store i64 %21, ptr %6, align 8
  br label %22

22:                                               ; preds = %18, %3
  %23 = load ptr, ptr %4, align 8
  %24 = getelementptr inbounds %struct._dom_lexbor_libxml2_bridge_application_data, ptr %23, i32 0, i32 1
  %25 = load ptr, ptr %24, align 8
  %26 = icmp ne ptr %25, null
  br i1 %26, label %27, label %62

27:                                               ; preds = %22
  br label %28

28:                                               ; preds = %56, %27
  %29 = load ptr, ptr %5, align 8
  %30 = getelementptr inbounds %struct._dom_line_column_cache, ptr %29, i32 0, i32 2
  %31 = load i64, ptr %30, align 8
  %32 = load i64, ptr %6, align 8
  %33 = icmp ult i64 %31, %32
  br i1 %33, label %34, label %61

34:                                               ; preds = %28
  %35 = load ptr, ptr %4, align 8
  %36 = getelementptr inbounds %struct._dom_lexbor_libxml2_bridge_application_data, ptr %35, i32 0, i32 1
  %37 = load ptr, ptr %36, align 8
  %38 = load ptr, ptr %5, align 8
  %39 = getelementptr inbounds %struct._dom_line_column_cache, ptr %38, i32 0, i32 2
  %40 = load i64, ptr %39, align 8
  %41 = getelementptr inbounds i32, ptr %37, i64 %40
  %42 = load i32, ptr %41, align 4
  %43 = icmp eq i32 %42, 10
  br i1 %43, label %44, label %51

44:                                               ; preds = %34
  %45 = load ptr, ptr %5, align 8
  %46 = getelementptr inbounds %struct._dom_line_column_cache, ptr %45, i32 0, i32 0
  %47 = load i64, ptr %46, align 8
  %48 = add i64 %47, 1
  store i64 %48, ptr %46, align 8
  %49 = load ptr, ptr %5, align 8
  %50 = getelementptr inbounds %struct._dom_line_column_cache, ptr %49, i32 0, i32 1
  store i64 1, ptr %50, align 8
  br label %56

51:                                               ; preds = %34
  %52 = load ptr, ptr %5, align 8
  %53 = getelementptr inbounds %struct._dom_line_column_cache, ptr %52, i32 0, i32 1
  %54 = load i64, ptr %53, align 8
  %55 = add i64 %54, 1
  store i64 %55, ptr %53, align 8
  br label %56

56:                                               ; preds = %51, %44
  %57 = load ptr, ptr %5, align 8
  %58 = getelementptr inbounds %struct._dom_line_column_cache, ptr %57, i32 0, i32 2
  %59 = load i64, ptr %58, align 8
  %60 = add i64 %59, 1
  store i64 %60, ptr %58, align 8
  br label %28

61:                                               ; preds = %28
  br label %109

62:                                               ; preds = %22
  br label %63

63:                                               ; preds = %107, %62
  %64 = load ptr, ptr %5, align 8
  %65 = getelementptr inbounds %struct._dom_line_column_cache, ptr %64, i32 0, i32 2
  %66 = load i64, ptr %65, align 8
  %67 = load i64, ptr %6, align 8
  %68 = icmp ult i64 %66, %67
  br i1 %68, label %69, label %108

69:                                               ; preds = %63
  %70 = load ptr, ptr %4, align 8
  %71 = getelementptr inbounds %struct._dom_lexbor_libxml2_bridge_application_data, ptr %70, i32 0, i32 2
  %72 = load ptr, ptr %71, align 8
  %73 = load ptr, ptr %5, align 8
  %74 = getelementptr inbounds %struct._dom_line_column_cache, ptr %73, i32 0, i32 2
  %75 = load i64, ptr %74, align 8
  %76 = getelementptr inbounds i8, ptr %72, i64 %75
  %77 = load i8, ptr %76, align 1
  store i8 %77, ptr %7, align 1
  %78 = load i8, ptr %7, align 1
  %79 = zext i8 %78 to i32
  %80 = icmp eq i32 %79, 10
  br i1 %80, label %81, label %92

81:                                               ; preds = %69
  %82 = load ptr, ptr %5, align 8
  %83 = getelementptr inbounds %struct._dom_line_column_cache, ptr %82, i32 0, i32 0
  %84 = load i64, ptr %83, align 8
  %85 = add i64 %84, 1
  store i64 %85, ptr %83, align 8
  %86 = load ptr, ptr %5, align 8
  %87 = getelementptr inbounds %struct._dom_line_column_cache, ptr %86, i32 0, i32 1
  store i64 1, ptr %87, align 8
  %88 = load ptr, ptr %5, align 8
  %89 = getelementptr inbounds %struct._dom_line_column_cache, ptr %88, i32 0, i32 2
  %90 = load i64, ptr %89, align 8
  %91 = add i64 %90, 1
  store i64 %91, ptr %89, align 8
  br label %107

92:                                               ; preds = %69
  %93 = load i8, ptr %7, align 1
  %94 = zext i8 %93 to i32
  %95 = and i32 %94, 192
  %96 = icmp ne i32 %95, 128
  br i1 %96, label %97, label %102

97:                                               ; preds = %92
  %98 = load ptr, ptr %5, align 8
  %99 = getelementptr inbounds %struct._dom_line_column_cache, ptr %98, i32 0, i32 1
  %100 = load i64, ptr %99, align 8
  %101 = add i64 %100, 1
  store i64 %101, ptr %99, align 8
  br label %102

102:                                              ; preds = %97, %92
  %103 = load ptr, ptr %5, align 8
  %104 = getelementptr inbounds %struct._dom_line_column_cache, ptr %103, i32 0, i32 2
  %105 = load i64, ptr %104, align 8
  %106 = add i64 %105, 1
  store i64 %106, ptr %104, align 8
  br label %107

107:                                              ; preds = %102, %81
  br label %63

108:                                              ; preds = %63
  br label %109

109:                                              ; preds = %108, %61
  ret void
}

; Function Attrs: nounwind uwtable
define internal void @dom_lexbor_libxml2_bridge_tokenizer_error_reporter(ptr noundef %0, ptr noundef %1, i64 noundef %2) #0 {
  %4 = alloca ptr, align 8
  %5 = alloca ptr, align 8
  %6 = alloca i64, align 8
  %7 = alloca ptr, align 8
  store ptr %0, ptr %4, align 8
  store ptr %1, ptr %5, align 8
  store i64 %2, ptr %6, align 8
  %8 = load ptr, ptr %4, align 8
  store ptr %8, ptr %7, align 8
  %9 = load ptr, ptr %7, align 8
  %10 = load ptr, ptr %7, align 8
  %11 = getelementptr inbounds %struct._dom_lexbor_libxml2_bridge_application_data, ptr %10, i32 0, i32 5
  %12 = load i64, ptr %6, align 8
  call void @dom_find_line_and_column_using_cache(ptr noundef %9, ptr noundef %11, i64 noundef %12)
  %13 = load ptr, ptr %7, align 8
  %14 = getelementptr inbounds %struct._dom_lexbor_libxml2_bridge_application_data, ptr %13, i32 0, i32 0
  %15 = load ptr, ptr %14, align 8
  %16 = load ptr, ptr %7, align 8
  %17 = getelementptr inbounds %struct._dom_lexbor_libxml2_bridge_application_data, ptr %16, i32 0, i32 5
  %18 = getelementptr inbounds %struct._dom_line_column_cache, ptr %17, i32 0, i32 0
  %19 = load i64, ptr %18, align 8
  %20 = trunc i64 %19 to i32
  %21 = load ptr, ptr %7, align 8
  %22 = getelementptr inbounds %struct._dom_lexbor_libxml2_bridge_application_data, ptr %21, i32 0, i32 5
  %23 = getelementptr inbounds %struct._dom_line_column_cache, ptr %22, i32 0, i32 1
  %24 = load i64, ptr %23, align 8
  %25 = trunc i64 %24 to i32
  %26 = load ptr, ptr %5, align 8
  %27 = getelementptr inbounds %struct.lxb_html_tokenizer_error_t, ptr %26, i32 0, i32 1
  %28 = load i32, ptr %27, align 8
  %29 = call ptr @dom_lexbor_tokenizer_error_code_to_string(i32 noundef %28)
  %30 = load ptr, ptr %7, align 8
  %31 = getelementptr inbounds %struct._dom_lexbor_libxml2_bridge_application_data, ptr %30, i32 0, i32 0
  %32 = load ptr, ptr %31, align 8
  %33 = load ptr, ptr %7, align 8
  %34 = getelementptr inbounds %struct._dom_lexbor_libxml2_bridge_application_data, ptr %33, i32 0, i32 5
  %35 = getelementptr inbounds %struct._dom_line_column_cache, ptr %34, i32 0, i32 0
  %36 = load i64, ptr %35, align 8
  %37 = load ptr, ptr %7, align 8
  %38 = getelementptr inbounds %struct._dom_lexbor_libxml2_bridge_application_data, ptr %37, i32 0, i32 5
  %39 = getelementptr inbounds %struct._dom_line_column_cache, ptr %38, i32 0, i32 1
  %40 = load i64, ptr %39, align 8
  call void (ptr, i32, i32, ptr, ...) @php_libxml_pretend_ctx_error_ex(ptr noundef %15, i32 noundef %20, i32 noundef %25, ptr noundef @.str.20, ptr noundef %29, ptr noundef %32, i64 noundef %36, i64 noundef %40)
  ret void
}