; Function Attrs: nounwind uwtable
define internal void @dom_lexbor_libxml2_bridge_tokenizer_error_reporter(ptr nocapture noundef %0, ptr nocapture noundef readonly %1, i64 noundef %2) #0 {
  %4 = getelementptr inbounds i8, ptr %0, i64 40
  %5 = getelementptr inbounds i8, ptr %0, i64 32
  %6 = load i64, ptr %5, align 8
  %7 = sub i64 %2, %6
  %8 = getelementptr inbounds i8, ptr %0, i64 24
  %9 = load i64, ptr %8, align 8
  %spec.select.i = tail call i64 @llvm.umin.i64(i64 %7, i64 %9)
  %10 = getelementptr inbounds i8, ptr %0, i64 8
  %11 = load ptr, ptr %10, align 8
  %.not.i = icmp eq ptr %11, null
  %12 = getelementptr inbounds i8, ptr %0, i64 56
  %.promoted.i = load i64, ptr %12, align 8
  %13 = icmp ult i64 %.promoted.i, %spec.select.i
  br i1 %.not.i, label %.preheader.i, label %.preheader30.i

.preheader30.i:                                   ; preds = %3
  br i1 %13, label %.lr.ph.i, label %dom_find_line_and_column_using_cache.exit

.lr.ph.i:                                         ; preds = %.preheader30.i
  %14 = getelementptr inbounds i8, ptr %0, i64 48
  %.promoted = load i64, ptr %14, align 8
  br label %18

.preheader.i:                                     ; preds = %3
  br i1 %13, label %.lr.ph34.i, label %dom_find_line_and_column_using_cache.exit

.lr.ph34.i:                                       ; preds = %.preheader.i
  %15 = getelementptr inbounds i8, ptr %0, i64 16
  %16 = getelementptr inbounds i8, ptr %0, i64 48
  %17 = load ptr, ptr %15, align 8
  br label %31

18:                                               ; preds = %29, %.lr.ph.i
  %19 = phi i64 [ %.promoted, %.lr.ph.i ], [ %storemerge37.i, %29 ]
  %20 = phi i64 [ %.promoted.i, %.lr.ph.i ], [ %30, %29 ]
  %21 = getelementptr inbounds i32, ptr %11, i64 %20
  %22 = load i32, ptr %21, align 4
  %23 = icmp eq i32 %22, 10
  br i1 %23, label %24, label %27

24:                                               ; preds = %18
  %25 = load i64, ptr %4, align 8
  %26 = add i64 %25, 1
  store i64 %26, ptr %4, align 8
  br label %29

27:                                               ; preds = %18
  %28 = add i64 %19, 1
  br label %29

29:                                               ; preds = %27, %24
  %storemerge37.i = phi i64 [ %28, %27 ], [ 1, %24 ]
  store i64 %storemerge37.i, ptr %14, align 8
  %30 = add nuw i64 %20, 1
  store i64 %30, ptr %12, align 8
  %exitcond.not.i = icmp eq i64 %30, %spec.select.i
  br i1 %exitcond.not.i, label %dom_find_line_and_column_using_cache.exit, label %18

31:                                               ; preds = %43, %.lr.ph34.i
  %storemerge3233.i = phi i64 [ %.promoted.i, %.lr.ph34.i ], [ %storemerge.i, %43 ]
  %32 = getelementptr inbounds i8, ptr %17, i64 %storemerge3233.i
  %33 = load i8, ptr %32, align 1
  %34 = icmp eq i8 %33, 10
  br i1 %34, label %35, label %38

35:                                               ; preds = %31
  %36 = load i64, ptr %4, align 8
  %37 = add i64 %36, 1
  store i64 %37, ptr %4, align 8
  br label %.sink.split.i

38:                                               ; preds = %31
  %39 = and i8 %33, -64
  %.not29.i = icmp eq i8 %39, -128
  br i1 %.not29.i, label %43, label %40

40:                                               ; preds = %38
  %41 = load i64, ptr %16, align 8
  %42 = add i64 %41, 1
  br label %.sink.split.i

.sink.split.i:                                    ; preds = %40, %35
  %.sink.i = phi i64 [ %42, %40 ], [ 1, %35 ]
  store i64 %.sink.i, ptr %16, align 8
  br label %43

43:                                               ; preds = %.sink.split.i, %38
  %storemerge.i = add nuw i64 %storemerge3233.i, 1
  store i64 %storemerge.i, ptr %12, align 8
  %exitcond36.not.i = icmp eq i64 %storemerge.i, %spec.select.i
  br i1 %exitcond36.not.i, label %dom_find_line_and_column_using_cache.exit, label %31

dom_find_line_and_column_using_cache.exit:        ; preds = %29, %43, %.preheader30.i, %.preheader.i
  %44 = load ptr, ptr %0, align 8
  %45 = load i64, ptr %4, align 8
  %46 = getelementptr inbounds i8, ptr %0, i64 48
  %47 = load i64, ptr %46, align 8
  %48 = getelementptr inbounds i8, ptr %1, i64 8
  %49 = load i32, ptr %48, align 8
  %50 = icmp ult i32 %49, 49
  br i1 %50, label %switch.lookup, label %dom_lexbor_tokenizer_error_code_to_string.exit

switch.lookup:                                    ; preds = %dom_find_line_and_column_using_cache.exit
  %51 = zext nneg i32 %49 to i64
  %switch.gep = getelementptr inbounds [49 x ptr], ptr @switch.table.dom_lexbor_libxml2_bridge_tokenizer_error_reporter, i64 0, i64 %51
  %switch.load = load ptr, ptr %switch.gep, align 8
  br label %dom_lexbor_tokenizer_error_code_to_string.exit

dom_lexbor_tokenizer_error_code_to_string.exit:   ; preds = %dom_find_line_and_column_using_cache.exit, %switch.lookup
  %.0.i = phi ptr [ %switch.load, %switch.lookup ], [ @.str.70, %dom_find_line_and_column_using_cache.exit ]
  %52 = trunc i64 %47 to i32
  %53 = trunc i64 %45 to i32
  tail call void (ptr, i32, i32, ptr, ...) @php_libxml_pretend_ctx_error_ex(ptr noundef %44, i32 noundef %53, i32 noundef %52, ptr noundef nonnull @.str.20, ptr noundef nonnull %.0.i, ptr noundef %44, i64 noundef %45, i64 noundef %47) #11
  ret void
}